target datalayout = "e-m:e-p270:32:32-p271:32:32-p272:64:64-i64:64-i128:128-f80:128-n8:16:32:64-S128"
target triple = "x86_64-pc-linux-gnu"

%class.QEvent = type { ptr, i16, i8, i8, i8, i8, i16 }

; Function Attrs: mustprogress nounwind uwtable
define linkonce_odr noundef i32 @_ZNK6QEvent4typeEv(ptr noundef nonnull align 8 dereferenceable(16) %0) #3 comdat align 2 {
  %2 = alloca ptr, align 8
  store ptr %0, ptr %2, align 8
  %3 = load ptr, ptr %2, align 8
  %4 = getelementptr inbounds %class.QEvent, ptr %3, i32 0, i32 1
  %5 = load i16, ptr %4, align 8
  %6 = zext i16 %5 to i32
  ret i32 %6
}

; Function Attrs: mustprogress uwtable
define noundef zeroext i1 @_ZN23FilterExpressionToolBar5eventEP6QEvent(ptr noundef nonnull align 8 dereferenceable(52) %0, ptr noundef %1) unnamed_addr #0 align 2 {
  %3 = alloca ptr, align 8
  %4 = alloca ptr, align 8
  store ptr %0, ptr %3, align 8
  store ptr %1, ptr %4, align 8
  %5 = load ptr, ptr %3, align 8
  %6 = load ptr, ptr %4, align 8
  %7 = call noundef i32 @_ZNK6QEvent4typeEv(ptr noundef nonnull align 8 dereferenceable(16) %6)
  switch i32 %7, label %9 [
    i32 38, label %8
  ]

8:                                                ; preds = %2
  call void @_ZN23FilterExpressionToolBar16updateStyleSheetEv(ptr noundef nonnull align 8 dereferenceable(52) %5)
  br label %10

9:                                                ; preds = %2
  br label %10

10:                                               ; preds = %9, %8
  %11 = load ptr, ptr %4, align 8
  %12 = call noundef zeroext i1 @_ZN8QToolBar5eventEP6QEvent(ptr noundef nonnull align 8 dereferenceable(40) %5, ptr noundef %11)
  ret i1 %12
}